target datalayout = "e-m:e-p270:32:32-p271:32:32-p272:64:64-i64:64-i128:128-f80:128-n8:16:32:64-S128"
target triple = "x86_64-pc-linux-gnu"

@.str.4 = private unnamed_addr constant [2 x i8] c"_\00", align 1

; Function Attrs: inlinehint mustprogress nounwind uwtable
define internal noundef signext i8 @_ZL9U_FAILURE10UErrorCode(i32 noundef %0) #2 {
  %2 = alloca i32, align 4
  store i32 %0, ptr %2, align 4, !tbaa !15
  %3 = load i32, ptr %2, align 4, !tbaa !15
  %4 = icmp sgt i32 %3, 0
  %5 = zext i1 %4 to i8
  ret i8 %5
}

; Function Attrs: mustprogress uwtable
define internal void @_ZN12_GLOBAL__N_129createTagStringWithAlternatesEPKciS1_iS1_iS1_iS1_iRN6icu_778ByteSinkER10UErrorCode(ptr noundef %0, i32 noundef %1, ptr noundef %2, i32 noundef %3, ptr noundef %4, i32 noundef %5, ptr noundef %6, i32 noundef %7, ptr noundef %8, i32 noundef %9, ptr noundef nonnull align 8 dereferenceable(8) %10, ptr noundef nonnull align 4 dereferenceable(4) %11) #1 {
  %13 = alloca ptr, align 8
  %14 = alloca i32, align 4
  %15 = alloca ptr, align 8
  %16 = alloca i32, align 4
  %17 = alloca ptr, align 8
  %18 = alloca i32, align 4
  %19 = alloca ptr, align 8
  %20 = alloca i32, align 4
  %21 = alloca ptr, align 8
  %22 = alloca i32, align 4
  %23 = alloca ptr, align 8
  %24 = alloca ptr, align 8
  store ptr %0, ptr %13, align 8, !tbaa !17
  store i32 %1, ptr %14, align 4, !tbaa !14
  store ptr %2, ptr %15, align 8, !tbaa !17
  store i32 %3, ptr %16, align 4, !tbaa !14
  store ptr %4, ptr %17, align 8, !tbaa !17
  store i32 %5, ptr %18, align 4, !tbaa !14
  store ptr %6, ptr %19, align 8, !tbaa !17
  store i32 %7, ptr %20, align 4, !tbaa !14
  store ptr %8, ptr %21, align 8, !tbaa !17
  store i32 %9, ptr %22, align 4, !tbaa !14
  store ptr %10, ptr %23, align 8, !tbaa !26
  store ptr %11, ptr %24, align 8, !tbaa !22
  %25 = load ptr, ptr %24, align 8, !tbaa !22
  %26 = load i32, ptr %25, align 4, !tbaa !15
  %27 = call noundef signext i8 @_ZL9U_FAILURE10UErrorCode(i32 noundef %26)
  %28 = icmp ne i8 %27, 0
  br i1 %28, label %29, label %30

29:                                               ; preds = %12
  br label %111

30:                                               ; preds = %12
  %31 = load i32, ptr %14, align 4, !tbaa !14
  %32 = icmp sge i32 %31, 12
  br i1 %32, label %39, label %33

33:                                               ; preds = %30
  %34 = load i32, ptr %16, align 4, !tbaa !14
  %35 = icmp sge i32 %34, 6
  br i1 %35, label %39, label %36

36:                                               ; preds = %33
  %37 = load i32, ptr %18, align 4, !tbaa !14
  %38 = icmp sge i32 %37, 4
  br i1 %38, label %39, label %41

39:                                               ; preds = %36, %33, %30
  %40 = load ptr, ptr %24, align 8, !tbaa !22
  store i32 1, ptr %40, align 4, !tbaa !15
  br label %111

41:                                               ; preds = %36
  %42 = load i32, ptr %14, align 4, !tbaa !14
  %43 = icmp sgt i32 %42, 0
  br i1 %43, label %44, label %51

44:                                               ; preds = %41
  %45 = load ptr, ptr %23, align 8, !tbaa !26
  %46 = load ptr, ptr %13, align 8, !tbaa !17
  %47 = load i32, ptr %14, align 4, !tbaa !14
  %48 = load ptr, ptr %45, align 8, !tbaa !60
  %49 = getelementptr inbounds ptr, ptr %48, i64 2
  %50 = load ptr, ptr %49, align 8
  call void %50(ptr noundef nonnull align 8 dereferenceable(8) %45, ptr noundef %46, i32 noundef %47)
  br label %51

51:                                               ; preds = %44, %41
  %52 = load i32, ptr %16, align 4, !tbaa !14
  %53 = icmp sgt i32 %52, 0
  br i1 %53, label %54, label %65

54:                                               ; preds = %51
  %55 = load ptr, ptr %23, align 8, !tbaa !26
  %56 = load ptr, ptr %55, align 8, !tbaa !60
  %57 = getelementptr inbounds ptr, ptr %56, i64 2
  %58 = load ptr, ptr %57, align 8
  call void %58(ptr noundef nonnull align 8 dereferenceable(8) %55, ptr noundef @.str.4, i32 noundef 1)
  %59 = load ptr, ptr %23, align 8, !tbaa !26
  %60 = load ptr, ptr %15, align 8, !tbaa !17
  %61 = load i32, ptr %16, align 4, !tbaa !14
  %62 = load ptr, ptr %59, align 8, !tbaa !60
  %63 = getelementptr inbounds ptr, ptr %62, i64 2
  %64 = load ptr, ptr %63, align 8
  call void %64(ptr noundef nonnull align 8 dereferenceable(8) %59, ptr noundef %60, i32 noundef %61)
  br label %65

65:                                               ; preds = %54, %51
  %66 = load i32, ptr %18, align 4, !tbaa !14
  %67 = icmp sgt i32 %66, 0
  br i1 %67, label %68, label %79

68:                                               ; preds = %65
  %69 = load ptr, ptr %23, align 8, !tbaa !26
  %70 = load ptr, ptr %69, align 8, !tbaa !60
  %71 = getelementptr inbounds ptr, ptr %70, i64 2
  %72 = load ptr, ptr %71, align 8
  call void %72(ptr noundef nonnull align 8 dereferenceable(8) %69, ptr noundef @.str.4, i32 noundef 1)
  %73 = load ptr, ptr %23, align 8, !tbaa !26
  %74 = load ptr, ptr %17, align 8, !tbaa !17
  %75 = load i32, ptr %18, align 4, !tbaa !14
  %76 = load ptr, ptr %73, align 8, !tbaa !60
  %77 = getelementptr inbounds ptr, ptr %76, i64 2
  %78 = load ptr, ptr %77, align 8
  call void %78(ptr noundef nonnull align 8 dereferenceable(8) %73, ptr noundef %74, i32 noundef %75)
  br label %79

79:                                               ; preds = %68, %65
  %80 = load i32, ptr %20, align 4, !tbaa !14
  %81 = icmp sgt i32 %80, 0
  br i1 %81, label %82, label %101

82:                                               ; preds = %79
  %83 = load i32, ptr %18, align 4, !tbaa !14
  %84 = icmp eq i32 %83, 0
  br i1 %84, label %85, label %90

85:                                               ; preds = %82
  %86 = load ptr, ptr %23, align 8, !tbaa !26
  %87 = load ptr, ptr %86, align 8, !tbaa !60
  %88 = getelementptr inbounds ptr, ptr %87, i64 2
  %89 = load ptr, ptr %88, align 8
  call void %89(ptr noundef nonnull align 8 dereferenceable(8) %86, ptr noundef @.str.4, i32 noundef 1)
  br label %90

90:                                               ; preds = %85, %82
  %91 = load ptr, ptr %23, align 8, !tbaa !26
  %92 = load ptr, ptr %91, align 8, !tbaa !60
  %93 = getelementptr inbounds ptr, ptr %92, i64 2
  %94 = load ptr, ptr %93, align 8
  call void %94(ptr noundef nonnull align 8 dereferenceable(8) %91, ptr noundef @.str.4, i32 noundef 1)
  %95 = load ptr, ptr %23, align 8, !tbaa !26
  %96 = load ptr, ptr %19, align 8, !tbaa !17
  %97 = load i32, ptr %20, align 4, !tbaa !14
  %98 = load ptr, ptr %95, align 8, !tbaa !60
  %99 = getelementptr inbounds ptr, ptr %98, i64 2
  %100 = load ptr, ptr %99, align 8
  call void %100(ptr noundef nonnull align 8 dereferenceable(8) %95, ptr noundef %96, i32 noundef %97)
  br label %101

101:                                              ; preds = %90, %79
  %102 = load i32, ptr %22, align 4, !tbaa !14
  %103 = icmp sgt i32 %102, 0
  br i1 %103, label %104, label %111

104:                                              ; preds = %101
  %105 = load ptr, ptr %23, align 8, !tbaa !26
  %106 = load ptr, ptr %21, align 8, !tbaa !17
  %107 = load i32, ptr %22, align 4, !tbaa !14
  %108 = load ptr, ptr %105, align 8, !tbaa !60
  %109 = getelementptr inbounds ptr, ptr %108, i64 2
  %110 = load ptr, ptr %109, align 8
  call void %110(ptr noundef nonnull align 8 dereferenceable(8) %105, ptr noundef %106, i32 noundef %107)
  br label %111

111:                                              ; preds = %29, %39, %104, %101
  ret void
}