; Function Attrs: mustprogress uwtable
define internal fastcc void @_ZN12_GLOBAL__N_129createTagStringWithAlternatesEPKciS1_iS1_iS1_iS1_iRN6icu_778ByteSinkER10UErrorCode(ptr noundef %0, i32 noundef %1, ptr noundef %2, i32 noundef %3, ptr noundef %4, i32 noundef %5, ptr noundef %6, i32 noundef %7, ptr noundef %8, i32 noundef %9, ptr noundef nonnull align 8 dereferenceable(8) %10, ptr noundef nonnull align 4 captures(none) dereferenceable(4) %11) unnamed_addr #1 {
  %13 = load i32, ptr %11, align 4, !tbaa !13
  %14 = icmp slt i32 %13, 1
  br i1 %14, label %15, label %65

15:                                               ; preds = %12
  %16 = icmp sgt i32 %1, 11
  %17 = icmp sgt i32 %3, 5
  %or.cond = or i1 %16, %17
  %18 = icmp sgt i32 %5, 3
  %or.cond3 = or i1 %or.cond, %18
  br i1 %or.cond3, label %19, label %20

19:                                               ; preds = %15
  store i32 1, ptr %11, align 4, !tbaa !13
  br label %65

20:                                               ; preds = %15
  %21 = icmp sgt i32 %1, 0
  br i1 %21, label %22, label %26

22:                                               ; preds = %20
  %23 = load ptr, ptr %10, align 8, !tbaa !46
  %24 = getelementptr inbounds nuw i8, ptr %23, i64 16
  %25 = load ptr, ptr %24, align 8
  tail call void %25(ptr noundef nonnull align 8 dereferenceable(8) %10, ptr noundef %0, i32 noundef %1)
  br label %26

26:                                               ; preds = %22, %20
  %27 = icmp sgt i32 %3, 0
  br i1 %27, label %28, label %35

28:                                               ; preds = %26
  %29 = load ptr, ptr %10, align 8, !tbaa !46
  %30 = getelementptr inbounds nuw i8, ptr %29, i64 16
  %31 = load ptr, ptr %30, align 8
  tail call void %31(ptr noundef nonnull align 8 dereferenceable(8) %10, ptr noundef nonnull @.str.4, i32 noundef 1)
  %32 = load ptr, ptr %10, align 8, !tbaa !46
  %33 = getelementptr inbounds nuw i8, ptr %32, i64 16
  %34 = load ptr, ptr %33, align 8
  tail call void %34(ptr noundef nonnull align 8 dereferenceable(8) %10, ptr noundef %2, i32 noundef %3)
  br label %35

35:                                               ; preds = %28, %26
  %36 = icmp sgt i32 %5, 0
  br i1 %36, label %37, label %44

37:                                               ; preds = %35
  %38 = load ptr, ptr %10, align 8, !tbaa !46
  %39 = getelementptr inbounds nuw i8, ptr %38, i64 16
  %40 = load ptr, ptr %39, align 8
  tail call void %40(ptr noundef nonnull align 8 dereferenceable(8) %10, ptr noundef nonnull @.str.4, i32 noundef 1)
  %41 = load ptr, ptr %10, align 8, !tbaa !46
  %42 = getelementptr inbounds nuw i8, ptr %41, i64 16
  %43 = load ptr, ptr %42, align 8
  tail call void %43(ptr noundef nonnull align 8 dereferenceable(8) %10, ptr noundef %4, i32 noundef %5)
  br label %44

44:                                               ; preds = %37, %35
  %45 = icmp sgt i32 %7, 0
  br i1 %45, label %46, label %59

46:                                               ; preds = %44
  %47 = icmp eq i32 %5, 0
  br i1 %47, label %48, label %52

48:                                               ; preds = %46
  %49 = load ptr, ptr %10, align 8, !tbaa !46
  %50 = getelementptr inbounds nuw i8, ptr %49, i64 16
  %51 = load ptr, ptr %50, align 8
  tail call void %51(ptr noundef nonnull align 8 dereferenceable(8) %10, ptr noundef nonnull @.str.4, i32 noundef 1)
  br label %52

52:                                               ; preds = %48, %46
  %53 = load ptr, ptr %10, align 8, !tbaa !46
  %54 = getelementptr inbounds nuw i8, ptr %53, i64 16
  %55 = load ptr, ptr %54, align 8
  tail call void %55(ptr noundef nonnull align 8 dereferenceable(8) %10, ptr noundef nonnull @.str.4, i32 noundef 1)
  %56 = load ptr, ptr %10, align 8, !tbaa !46
  %57 = getelementptr inbounds nuw i8, ptr %56, i64 16
  %58 = load ptr, ptr %57, align 8
  tail call void %58(ptr noundef nonnull align 8 dereferenceable(8) %10, ptr noundef %6, i32 noundef %7)
  br label %59

59:                                               ; preds = %52, %44
  %60 = icmp sgt i32 %9, 0
  br i1 %60, label %61, label %65

61:                                               ; preds = %59
  %62 = load ptr, ptr %10, align 8, !tbaa !46
  %63 = getelementptr inbounds nuw i8, ptr %62, i64 16
  %64 = load ptr, ptr %63, align 8
  tail call void %64(ptr noundef nonnull align 8 dereferenceable(8) %10, ptr noundef %8, i32 noundef %9)
  br label %65

65:                                               ; preds = %12, %61, %59, %19
  ret void
}